target datalayout = "e-m:e-p270:32:32-p271:32:32-p272:64:64-i64:64-i128:128-f80:128-n8:16:32:64-S128"
target triple = "x86_64-pc-linux-gnu"

%struct.TupleTableSlotOps = type { i64, ptr, ptr, ptr, ptr, ptr, ptr, ptr, ptr, ptr, ptr, ptr, ptr }
%struct.ForeignScan = type { %struct.Scan, i32, i32, i32, i32, ptr, ptr, ptr, ptr, ptr, ptr, i8 }
%struct.Scan = type { %struct.Plan, i32 }
%struct.Plan = type { i32, i32, double, double, double, i32, i8, i8, i8, i32, ptr, ptr, ptr, ptr, ptr, ptr, ptr }
%struct.ForeignScanState = type { %struct.ScanState, ptr, i64, ptr, ptr, ptr }
%struct.ScanState = type { %struct.PlanState, ptr, ptr, ptr }
%struct.PlanState = type { i32, ptr, ptr, ptr, ptr, ptr, ptr, ptr, ptr, ptr, ptr, ptr, ptr, ptr, ptr, ptr, ptr, ptr, i8, ptr, ptr, ptr, ptr, ptr, i8, i8, i8, i8, i8, i8, i8, i8 }
%struct.RelationData = type { %struct.RelFileLocator, ptr, i32, i32, i8, i8, i8, i8, i8, i32, i32, i32, i32, ptr, ptr, i32, %struct.LockInfoData, ptr, ptr, ptr, ptr, ptr, i8, ptr, ptr, ptr, ptr, ptr, ptr, i32, ptr, i8, ptr, ptr, i32, i8, i32, ptr, i8, ptr, ptr, ptr, ptr, ptr, ptr, ptr, i32, ptr, ptr, ptr, ptr, ptr, ptr, ptr, ptr, ptr, ptr, ptr, ptr, ptr, ptr, ptr, ptr, ptr, ptr, ptr, i32, i8, ptr }
%struct.RelFileLocator = type { i32, i32, i32 }
%struct.LockInfoData = type { %struct.LockRelId }
%struct.LockRelId = type { i32, i32 }
%struct.EState = type { i32, i32, ptr, ptr, ptr, i32, ptr, ptr, ptr, ptr, ptr, ptr, ptr, ptr, ptr, ptr, i32, ptr, ptr, ptr, ptr, ptr, ptr, ptr, ptr, ptr, ptr, i64, i64, i32, i32, i8, ptr, ptr, ptr, ptr, ptr, i8, i32, i32, ptr, i32, ptr, ptr, ptr, ptr }
%struct.FdwRoutine = type { i32, ptr, ptr, ptr, ptr, ptr, ptr, ptr, ptr, ptr, ptr, ptr, ptr, ptr, ptr, ptr, ptr, ptr, ptr, ptr, ptr, ptr, ptr, ptr, ptr, ptr, ptr, ptr, ptr, ptr, ptr, ptr, ptr, ptr, ptr, ptr, ptr, ptr, ptr, ptr, ptr, ptr, ptr, ptr, ptr, ptr }
%struct.Node = type { i32 }

@TTSOpsHeapTuple = external constant %struct.TupleTableSlotOps, align 8
@.str = private unnamed_addr constant [32 x i8] c"result relation not initialized\00", align 1
@.str.1 = private unnamed_addr constant [18 x i8] c"nodeForeignscan.c\00", align 1
@__func__.ExecInitForeignScan = private unnamed_addr constant [20 x i8] c"ExecInitForeignScan\00", align 1

; Function Attrs: inlinehint nounwind uwtable
define internal ptr @newNode(i64 noundef %0, i32 noundef %1) #2 {
  %3 = alloca i64, align 8
  %4 = alloca i32, align 4
  %5 = alloca ptr, align 8
  store i64 %0, ptr %3, align 8
  store i32 %1, ptr %4, align 4
  call void @llvm.lifetime.start.p0(i64 8, ptr %5) #5
  %6 = load i64, ptr %3, align 8
  %7 = call ptr @palloc0(i64 noundef %6)
  store ptr %7, ptr %5, align 8
  %8 = load i32, ptr %4, align 4
  %9 = load ptr, ptr %5, align 8
  %10 = getelementptr inbounds nuw %struct.Node, ptr %9, i32 0, i32 0
  store i32 %8, ptr %10, align 4
  %11 = load ptr, ptr %5, align 8
  call void @llvm.lifetime.end.p0(i64 8, ptr %5) #5
  ret ptr %11
}

; Function Attrs: nounwind uwtable
define dso_local ptr @ExecInitForeignScan(ptr noundef %0, ptr noundef %1, i32 noundef %2) #0 {
  %4 = alloca ptr, align 8
  %5 = alloca ptr, align 8
  %6 = alloca i32, align 4
  %7 = alloca ptr, align 8
  %8 = alloca ptr, align 8
  %9 = alloca i32, align 4
  %10 = alloca i32, align 4
  %11 = alloca ptr, align 8
  %12 = alloca ptr, align 8
  %13 = alloca ptr, align 8
  store ptr %0, ptr %4, align 8
  store ptr %1, ptr %5, align 8
  store i32 %2, ptr %6, align 4
  call void @llvm.lifetime.start.p0(i64 8, ptr %7) #5
  call void @llvm.lifetime.start.p0(i64 8, ptr %8) #5
  store ptr null, ptr %8, align 8
  call void @llvm.lifetime.start.p0(i64 4, ptr %9) #5
  %14 = load ptr, ptr %4, align 8
  %15 = getelementptr inbounds nuw %struct.ForeignScan, ptr %14, i32 0, i32 0
  %16 = getelementptr inbounds nuw %struct.Scan, ptr %15, i32 0, i32 1
  %17 = load i32, ptr %16, align 8
  store i32 %17, ptr %9, align 4
  call void @llvm.lifetime.start.p0(i64 4, ptr %10) #5
  call void @llvm.lifetime.start.p0(i64 8, ptr %11) #5
  %18 = call ptr @newNode(i64 noundef 264, i32 noundef 417)
  store ptr %18, ptr %7, align 8
  %19 = load ptr, ptr %4, align 8
  %20 = load ptr, ptr %7, align 8
  %21 = getelementptr inbounds nuw %struct.ForeignScanState, ptr %20, i32 0, i32 0
  %22 = getelementptr inbounds nuw %struct.ScanState, ptr %21, i32 0, i32 0
  %23 = getelementptr inbounds nuw %struct.PlanState, ptr %22, i32 0, i32 1
  store ptr %19, ptr %23, align 8
  %24 = load ptr, ptr %5, align 8
  %25 = load ptr, ptr %7, align 8
  %26 = getelementptr inbounds nuw %struct.ForeignScanState, ptr %25, i32 0, i32 0
  %27 = getelementptr inbounds nuw %struct.ScanState, ptr %26, i32 0, i32 0
  %28 = getelementptr inbounds nuw %struct.PlanState, ptr %27, i32 0, i32 2
  store ptr %24, ptr %28, align 8
  %29 = load ptr, ptr %7, align 8
  %30 = getelementptr inbounds nuw %struct.ForeignScanState, ptr %29, i32 0, i32 0
  %31 = getelementptr inbounds nuw %struct.ScanState, ptr %30, i32 0, i32 0
  %32 = getelementptr inbounds nuw %struct.PlanState, ptr %31, i32 0, i32 3
  store ptr @ExecForeignScan, ptr %32, align 8
  %33 = load ptr, ptr %5, align 8
  %34 = load ptr, ptr %7, align 8
  %35 = getelementptr inbounds nuw %struct.ForeignScanState, ptr %34, i32 0, i32 0
  %36 = getelementptr inbounds nuw %struct.ScanState, ptr %35, i32 0, i32 0
  call void @ExecAssignExprContext(ptr noundef %33, ptr noundef %36)
  %37 = load i32, ptr %9, align 4
  %38 = icmp ugt i32 %37, 0
  br i1 %38, label %39, label %50

39:                                               ; preds = %3
  %40 = load ptr, ptr %5, align 8
  %41 = load i32, ptr %9, align 4
  %42 = load i32, ptr %6, align 4
  %43 = call ptr @ExecOpenScanRelation(ptr noundef %40, i32 noundef %41, i32 noundef %42)
  store ptr %43, ptr %8, align 8
  %44 = load ptr, ptr %8, align 8
  %45 = load ptr, ptr %7, align 8
  %46 = getelementptr inbounds nuw %struct.ForeignScanState, ptr %45, i32 0, i32 0
  %47 = getelementptr inbounds nuw %struct.ScanState, ptr %46, i32 0, i32 1
  store ptr %44, ptr %47, align 8
  %48 = load ptr, ptr %8, align 8
  %49 = call ptr @GetFdwRoutineForRelation(ptr noundef %48, i1 noundef zeroext true)
  store ptr %49, ptr %11, align 8
  br label %55

50:                                               ; preds = %3
  %51 = load ptr, ptr %4, align 8
  %52 = getelementptr inbounds nuw %struct.ForeignScan, ptr %51, i32 0, i32 4
  %53 = load i32, ptr %52, align 4
  %54 = call ptr @GetFdwRoutineByServerId(i32 noundef %53)
  store ptr %54, ptr %11, align 8
  br label %55

55:                                               ; preds = %50, %39
  %56 = load ptr, ptr %4, align 8
  %57 = getelementptr inbounds nuw %struct.ForeignScan, ptr %56, i32 0, i32 7
  %58 = load ptr, ptr %57, align 8
  %59 = icmp ne ptr %58, null
  br i1 %59, label %63, label %60

60:                                               ; preds = %55
  %61 = load ptr, ptr %8, align 8
  %62 = icmp eq ptr %61, null
  br i1 %62, label %63, label %72

63:                                               ; preds = %60, %55
  call void @llvm.lifetime.start.p0(i64 8, ptr %12) #5
  %64 = load ptr, ptr %4, align 8
  %65 = getelementptr inbounds nuw %struct.ForeignScan, ptr %64, i32 0, i32 7
  %66 = load ptr, ptr %65, align 8
  %67 = call ptr @ExecTypeFromTL(ptr noundef %66)
  store ptr %67, ptr %12, align 8
  %68 = load ptr, ptr %5, align 8
  %69 = load ptr, ptr %7, align 8
  %70 = getelementptr inbounds nuw %struct.ForeignScanState, ptr %69, i32 0, i32 0
  %71 = load ptr, ptr %12, align 8
  call void @ExecInitScanTupleSlot(ptr noundef %68, ptr noundef %70, ptr noundef %71, ptr noundef @TTSOpsHeapTuple)
  store i32 -3, ptr %10, align 4
  call void @llvm.lifetime.end.p0(i64 8, ptr %12) #5
  br label %82

72:                                               ; preds = %60
  call void @llvm.lifetime.start.p0(i64 8, ptr %13) #5
  %73 = load ptr, ptr %8, align 8
  %74 = getelementptr inbounds nuw %struct.RelationData, ptr %73, i32 0, i32 14
  %75 = load ptr, ptr %74, align 8
  %76 = call ptr @CreateTupleDescCopy(ptr noundef %75)
  store ptr %76, ptr %13, align 8
  %77 = load ptr, ptr %5, align 8
  %78 = load ptr, ptr %7, align 8
  %79 = getelementptr inbounds nuw %struct.ForeignScanState, ptr %78, i32 0, i32 0
  %80 = load ptr, ptr %13, align 8
  call void @ExecInitScanTupleSlot(ptr noundef %77, ptr noundef %79, ptr noundef %80, ptr noundef @TTSOpsHeapTuple)
  %81 = load i32, ptr %9, align 4
  store i32 %81, ptr %10, align 4
  call void @llvm.lifetime.end.p0(i64 8, ptr %13) #5
  br label %82

82:                                               ; preds = %72, %63
  %83 = load ptr, ptr %7, align 8
  %84 = getelementptr inbounds nuw %struct.ForeignScanState, ptr %83, i32 0, i32 0
  %85 = getelementptr inbounds nuw %struct.ScanState, ptr %84, i32 0, i32 0
  %86 = getelementptr inbounds nuw %struct.PlanState, ptr %85, i32 0, i32 24
  store i8 0, ptr %86, align 8
  %87 = load ptr, ptr %7, align 8
  %88 = getelementptr inbounds nuw %struct.ForeignScanState, ptr %87, i32 0, i32 0
  %89 = getelementptr inbounds nuw %struct.ScanState, ptr %88, i32 0, i32 0
  %90 = getelementptr inbounds nuw %struct.PlanState, ptr %89, i32 0, i32 28
  store i8 1, ptr %90, align 4
  %91 = load ptr, ptr %7, align 8
  %92 = getelementptr inbounds nuw %struct.ForeignScanState, ptr %91, i32 0, i32 0
  %93 = getelementptr inbounds nuw %struct.ScanState, ptr %92, i32 0, i32 0
  call void @ExecInitResultTypeTL(ptr noundef %93)
  %94 = load ptr, ptr %7, align 8
  %95 = getelementptr inbounds nuw %struct.ForeignScanState, ptr %94, i32 0, i32 0
  %96 = load i32, ptr %10, align 4
  call void @ExecAssignScanProjectionInfoWithVarno(ptr noundef %95, i32 noundef %96)
  %97 = load ptr, ptr %4, align 8
  %98 = getelementptr inbounds nuw %struct.ForeignScan, ptr %97, i32 0, i32 0
  %99 = getelementptr inbounds nuw %struct.Scan, ptr %98, i32 0, i32 0
  %100 = getelementptr inbounds nuw %struct.Plan, ptr %99, i32 0, i32 11
  %101 = load ptr, ptr %100, align 8
  %102 = load ptr, ptr %7, align 8
  %103 = call ptr @ExecInitQual(ptr noundef %101, ptr noundef %102)
  %104 = load ptr, ptr %7, align 8
  %105 = getelementptr inbounds nuw %struct.ForeignScanState, ptr %104, i32 0, i32 0
  %106 = getelementptr inbounds nuw %struct.ScanState, ptr %105, i32 0, i32 0
  %107 = getelementptr inbounds nuw %struct.PlanState, ptr %106, i32 0, i32 8
  store ptr %103, ptr %107, align 8
  %108 = load ptr, ptr %4, align 8
  %109 = getelementptr inbounds nuw %struct.ForeignScan, ptr %108, i32 0, i32 8
  %110 = load ptr, ptr %109, align 8
  %111 = load ptr, ptr %7, align 8
  %112 = call ptr @ExecInitQual(ptr noundef %110, ptr noundef %111)
  %113 = load ptr, ptr %7, align 8
  %114 = getelementptr inbounds nuw %struct.ForeignScanState, ptr %113, i32 0, i32 1
  store ptr %112, ptr %114, align 8
  %115 = load ptr, ptr %4, align 8
  %116 = getelementptr inbounds nuw %struct.Plan, ptr %115, i32 0, i32 8
  %117 = load i8, ptr %116, align 2, !range !4, !noundef !5
  %118 = trunc i8 %117 to i1
  br i1 %118, label %119, label %124

119:                                              ; preds = %82
  %120 = load ptr, ptr %5, align 8
  %121 = getelementptr inbounds nuw %struct.EState, ptr %120, i32 0, i32 36
  %122 = load ptr, ptr %121, align 8
  %123 = icmp eq ptr %122, null
  br label %124

124:                                              ; preds = %119, %82
  %125 = phi i1 [ false, %82 ], [ %123, %119 ]
  %126 = load ptr, ptr %7, align 8
  %127 = getelementptr inbounds nuw %struct.ForeignScanState, ptr %126, i32 0, i32 0
  %128 = getelementptr inbounds nuw %struct.ScanState, ptr %127, i32 0, i32 0
  %129 = getelementptr inbounds nuw %struct.PlanState, ptr %128, i32 0, i32 18
  %130 = zext i1 %125 to i8
  store i8 %130, ptr %129, align 8
  %131 = load ptr, ptr %11, align 8
  %132 = load ptr, ptr %7, align 8
  %133 = getelementptr inbounds nuw %struct.ForeignScanState, ptr %132, i32 0, i32 4
  store ptr %131, ptr %133, align 8
  %134 = load ptr, ptr %7, align 8
  %135 = getelementptr inbounds nuw %struct.ForeignScanState, ptr %134, i32 0, i32 5
  store ptr null, ptr %135, align 8
  %136 = load ptr, ptr %4, align 8
  %137 = getelementptr inbounds nuw %struct.ForeignScan, ptr %136, i32 0, i32 2
  %138 = load i32, ptr %137, align 4
  %139 = icmp ugt i32 %138, 0
  br i1 %139, label %140, label %186

140:                                              ; preds = %124
  %141 = load ptr, ptr %5, align 8
  %142 = getelementptr inbounds nuw %struct.EState, ptr %141, i32 0, i32 36
  %143 = load ptr, ptr %142, align 8
  %144 = icmp eq ptr %143, null
  br i1 %144, label %145, label %186

145:                                              ; preds = %140
  %146 = load ptr, ptr %5, align 8
  %147 = getelementptr inbounds nuw %struct.EState, ptr %146, i32 0, i32 17
  %148 = load ptr, ptr %147, align 8
  %149 = icmp eq ptr %148, null
  br i1 %149, label %162, label %150

150:                                              ; preds = %145
  %151 = load ptr, ptr %5, align 8
  %152 = getelementptr inbounds nuw %struct.EState, ptr %151, i32 0, i32 17
  %153 = load ptr, ptr %152, align 8
  %154 = load ptr, ptr %4, align 8
  %155 = getelementptr inbounds nuw %struct.ForeignScan, ptr %154, i32 0, i32 2
  %156 = load i32, ptr %155, align 4
  %157 = sub i32 %156, 1
  %158 = zext i32 %157 to i64
  %159 = getelementptr inbounds nuw ptr, ptr %153, i64 %158
  %160 = load ptr, ptr %159, align 8
  %161 = icmp eq ptr %160, null
  br i1 %161, label %162, label %173

162:                                              ; preds = %150, %145
  br label %163

163:                                              ; preds = %162
  br i1 true, label %164, label %166

164:                                              ; preds = %163
  %165 = call zeroext i1 @errstart_cold(i32 noundef 21, ptr noundef null) #6
  br i1 %165, label %168, label %170

166:                                              ; preds = %163
  %167 = call zeroext i1 @errstart(i32 noundef 21, ptr noundef null)
  br i1 %167, label %168, label %170

168:                                              ; preds = %166, %164
  %169 = call i32 (ptr, ...) @errmsg_internal(ptr noundef @.str)
  call void @errfinish(ptr noundef @.str.1, i32 noundef 257, ptr noundef @__func__.ExecInitForeignScan)
  br label %170

170:                                              ; preds = %168, %166, %164
  unreachable

171:                                              ; No predecessors!
  br label %172

172:                                              ; preds = %171
  br label %173

173:                                              ; preds = %172, %150
  %174 = load ptr, ptr %5, align 8
  %175 = getelementptr inbounds nuw %struct.EState, ptr %174, i32 0, i32 17
  %176 = load ptr, ptr %175, align 8
  %177 = load ptr, ptr %4, align 8
  %178 = getelementptr inbounds nuw %struct.ForeignScan, ptr %177, i32 0, i32 2
  %179 = load i32, ptr %178, align 4
  %180 = sub i32 %179, 1
  %181 = zext i32 %180 to i64
  %182 = getelementptr inbounds nuw ptr, ptr %176, i64 %181
  %183 = load ptr, ptr %182, align 8
  %184 = load ptr, ptr %7, align 8
  %185 = getelementptr inbounds nuw %struct.ForeignScanState, ptr %184, i32 0, i32 3
  store ptr %183, ptr %185, align 8
  br label %186

186:                                              ; preds = %173, %140, %124
  %187 = load ptr, ptr %4, align 8
  %188 = getelementptr inbounds nuw %struct.Plan, ptr %187, i32 0, i32 12
  %189 = load ptr, ptr %188, align 8
  %190 = icmp ne ptr %189, null
  br i1 %190, label %191, label %200

191:                                              ; preds = %186
  %192 = load ptr, ptr %4, align 8
  %193 = getelementptr inbounds nuw %struct.Plan, ptr %192, i32 0, i32 12
  %194 = load ptr, ptr %193, align 8
  %195 = load ptr, ptr %5, align 8
  %196 = load i32, ptr %6, align 4
  %197 = call ptr @ExecInitNode(ptr noundef %194, ptr noundef %195, i32 noundef %196)
  %198 = load ptr, ptr %7, align 8
  %199 = getelementptr inbounds nuw %struct.PlanState, ptr %198, i32 0, i32 9
  store ptr %197, ptr %199, align 8
  br label %200

200:                                              ; preds = %191, %186
  %201 = load ptr, ptr %4, align 8
  %202 = getelementptr inbounds nuw %struct.ForeignScan, ptr %201, i32 0, i32 1
  %203 = load i32, ptr %202, align 8
  %204 = icmp ne i32 %203, 1
  br i1 %204, label %205, label %217

205:                                              ; preds = %200
  %206 = load ptr, ptr %5, align 8
  %207 = getelementptr inbounds nuw %struct.EState, ptr %206, i32 0, i32 36
  %208 = load ptr, ptr %207, align 8
  %209 = icmp eq ptr %208, null
  br i1 %209, label %210, label %216

210:                                              ; preds = %205
  %211 = load ptr, ptr %11, align 8
  %212 = getelementptr inbounds nuw %struct.FdwRoutine, ptr %211, i32 0, i32 23
  %213 = load ptr, ptr %212, align 8
  %214 = load ptr, ptr %7, align 8
  %215 = load i32, ptr %6, align 4
  call void %213(ptr noundef %214, i32 noundef %215)
  br label %216

216:                                              ; preds = %210, %205
  br label %223

217:                                              ; preds = %200
  %218 = load ptr, ptr %11, align 8
  %219 = getelementptr inbounds nuw %struct.FdwRoutine, ptr %218, i32 0, i32 4
  %220 = load ptr, ptr %219, align 8
  %221 = load ptr, ptr %7, align 8
  %222 = load i32, ptr %6, align 4
  call void %220(ptr noundef %221, i32 noundef %222)
  br label %223

223:                                              ; preds = %217, %216
  %224 = load ptr, ptr %7, align 8
  call void @llvm.lifetime.end.p0(i64 8, ptr %11) #5
  call void @llvm.lifetime.end.p0(i64 4, ptr %10) #5
  call void @llvm.lifetime.end.p0(i64 4, ptr %9) #5
  call void @llvm.lifetime.end.p0(i64 8, ptr %8) #5
  call void @llvm.lifetime.end.p0(i64 8, ptr %7) #5
  ret ptr %224
}