; Function Attrs: nounwind uwtable
define dso_local noundef ptr @ExecInitForeignScan(ptr noundef %0, ptr noundef %1, i32 noundef %2) local_unnamed_addr #0 {
  %4 = getelementptr inbounds nuw i8, ptr %0, i64 104
  %5 = load i32, ptr %4, align 8
  %6 = tail call noundef ptr @palloc0(i64 noundef 264) #5
  store i32 417, ptr %6, align 4
  %7 = getelementptr inbounds nuw i8, ptr %6, i64 8
  store ptr %0, ptr %7, align 8
  %8 = getelementptr inbounds nuw i8, ptr %6, i64 16
  store ptr %1, ptr %8, align 8
  %9 = getelementptr inbounds nuw i8, ptr %6, i64 24
  store ptr @ExecForeignScan, ptr %9, align 8
  tail call void @ExecAssignExprContext(ptr noundef %1, ptr noundef %6) #5
  %.not = icmp eq i32 %5, 0
  br i1 %.not, label %.thread, label %15

.thread:                                          ; preds = %3
  %10 = getelementptr inbounds nuw i8, ptr %0, i64 124
  %11 = load i32, ptr %10, align 4
  %12 = tail call ptr @GetFdwRoutineByServerId(i32 noundef %11) #5
  %13 = getelementptr inbounds nuw i8, ptr %0, i64 144
  %14 = load ptr, ptr %13, align 8
  br label %23

15:                                               ; preds = %3
  %16 = tail call ptr @ExecOpenScanRelation(ptr noundef %1, i32 noundef %5, i32 noundef %2) #5
  %17 = getelementptr inbounds nuw i8, ptr %6, i64 200
  store ptr %16, ptr %17, align 8
  %18 = tail call ptr @GetFdwRoutineForRelation(ptr noundef %16, i1 noundef zeroext true) #5
  %19 = getelementptr inbounds nuw i8, ptr %0, i64 144
  %20 = load ptr, ptr %19, align 8
  %21 = icmp ne ptr %20, null
  %22 = icmp eq ptr %16, null
  %or.cond = or i1 %22, %21
  br i1 %or.cond, label %23, label %26

23:                                               ; preds = %.thread, %15
  %24 = phi ptr [ %14, %.thread ], [ %20, %15 ]
  %.06780 = phi ptr [ %12, %.thread ], [ %18, %15 ]
  %25 = tail call ptr @ExecTypeFromTL(ptr noundef %24) #5
  br label %30

26:                                               ; preds = %15
  %27 = getelementptr inbounds nuw i8, ptr %16, i64 64
  %28 = load ptr, ptr %27, align 8
  %29 = tail call ptr @CreateTupleDescCopy(ptr noundef %28) #5
  br label %30

30:                                               ; preds = %26, %23
  %.sink = phi ptr [ %29, %26 ], [ %25, %23 ]
  %.06779 = phi ptr [ %18, %26 ], [ %.06780, %23 ]
  %.066 = phi i32 [ %5, %26 ], [ -3, %23 ]
  tail call void @ExecInitScanTupleSlot(ptr noundef %1, ptr noundef nonnull %6, ptr noundef %.sink, ptr noundef nonnull @TTSOpsHeapTuple) #5
  %31 = getelementptr inbounds nuw i8, ptr %6, i64 192
  store i8 0, ptr %31, align 8
  %32 = getelementptr inbounds nuw i8, ptr %6, i64 196
  store i8 1, ptr %32, align 4
  tail call void @ExecInitResultTypeTL(ptr noundef nonnull %6) #5
  tail call void @ExecAssignScanProjectionInfoWithVarno(ptr noundef nonnull %6, i32 noundef %.066) #5
  %33 = getelementptr inbounds nuw i8, ptr %0, i64 56
  %34 = load ptr, ptr %33, align 8
  %35 = tail call ptr @ExecInitQual(ptr noundef %34, ptr noundef nonnull %6) #5
  %36 = getelementptr inbounds nuw i8, ptr %6, i64 64
  store ptr %35, ptr %36, align 8
  %37 = getelementptr inbounds nuw i8, ptr %0, i64 152
  %38 = load ptr, ptr %37, align 8
  %39 = tail call ptr @ExecInitQual(ptr noundef %38, ptr noundef nonnull %6) #5
  %40 = getelementptr inbounds nuw i8, ptr %6, i64 224
  store ptr %39, ptr %40, align 8
  %41 = getelementptr inbounds nuw i8, ptr %0, i64 38
  %42 = load i8, ptr %41, align 2, !range !4, !noundef !5
  %43 = trunc nuw i8 %42 to i1
  br i1 %43, label %44, label %49

44:                                               ; preds = %30
  %45 = getelementptr inbounds nuw i8, ptr %1, i64 272
  %46 = load ptr, ptr %45, align 8
  %47 = icmp eq ptr %46, null
  %48 = zext i1 %47 to i8
  br label %49

49:                                               ; preds = %44, %30
  %50 = phi i8 [ 0, %30 ], [ %48, %44 ]
  %51 = getelementptr inbounds nuw i8, ptr %6, i64 144
  store i8 %50, ptr %51, align 8
  %52 = getelementptr inbounds nuw i8, ptr %6, i64 248
  store ptr %.06779, ptr %52, align 8
  %53 = getelementptr inbounds nuw i8, ptr %6, i64 256
  store ptr null, ptr %53, align 8
  %54 = getelementptr inbounds nuw i8, ptr %0, i64 116
  %55 = load i32, ptr %54, align 4
  %.not73 = icmp eq i32 %55, 0
  br i1 %.not73, label %75, label %56

56:                                               ; preds = %49
  %57 = getelementptr inbounds nuw i8, ptr %1, i64 272
  %58 = load ptr, ptr %57, align 8
  %59 = icmp eq ptr %58, null
  br i1 %59, label %60, label %75

60:                                               ; preds = %56
  %61 = getelementptr inbounds nuw i8, ptr %1, i64 128
  %62 = load ptr, ptr %61, align 8
  %63 = icmp eq ptr %62, null
  br i1 %63, label %70, label %64

64:                                               ; preds = %60
  %65 = add i32 %55, -1
  %66 = zext i32 %65 to i64
  %67 = getelementptr inbounds nuw ptr, ptr %62, i64 %66
  %68 = load ptr, ptr %67, align 8
  %69 = icmp eq ptr %68, null
  br i1 %69, label %70, label %73

70:                                               ; preds = %64, %60
  %71 = tail call zeroext i1 @errstart_cold(i32 noundef 21, ptr noundef null) #6
  tail call void @llvm.assume(i1 %71)
  %72 = tail call i32 (ptr, ...) @errmsg_internal(ptr noundef nonnull @.str) #5
  tail call void @errfinish(ptr noundef nonnull @.str.1, i32 noundef 257, ptr noundef nonnull @__func__.ExecInitForeignScan) #5
  unreachable

73:                                               ; preds = %64
  %74 = getelementptr inbounds nuw i8, ptr %6, i64 240
  store ptr %68, ptr %74, align 8
  br label %75

75:                                               ; preds = %73, %56, %49
  %76 = getelementptr inbounds nuw i8, ptr %0, i64 64
  %77 = load ptr, ptr %76, align 8
  %.not74 = icmp eq ptr %77, null
  br i1 %.not74, label %81, label %78

78:                                               ; preds = %75
  %79 = tail call ptr @ExecInitNode(ptr noundef nonnull %77, ptr noundef %1, i32 noundef %2) #5
  %80 = getelementptr inbounds nuw i8, ptr %6, i64 72
  store ptr %79, ptr %80, align 8
  br label %81

81:                                               ; preds = %78, %75
  %82 = getelementptr inbounds nuw i8, ptr %0, i64 112
  %83 = load i32, ptr %82, align 8
  %.not75 = icmp eq i32 %83, 1
  br i1 %.not75, label %.sink.split, label %84

84:                                               ; preds = %81
  %85 = getelementptr inbounds nuw i8, ptr %1, i64 272
  %86 = load ptr, ptr %85, align 8
  %87 = icmp eq ptr %86, null
  br i1 %87, label %.sink.split, label %90

.sink.split:                                      ; preds = %81, %84
  %.sink83 = phi i64 [ 184, %84 ], [ 32, %81 ]
  %88 = getelementptr inbounds nuw i8, ptr %.06779, i64 %.sink83
  %89 = load ptr, ptr %88, align 8
  tail call void %89(ptr noundef nonnull %6, i32 noundef %2) #5
  br label %90

90:                                               ; preds = %.sink.split, %84
  ret ptr %6
}